	.file	"HashTable.cpp"
	.text
	.section	.rodata
	.align 4
	.type	_ZL10LIST_ERROR, @object
	.size	_ZL10LIST_ERROR, 4
_ZL10LIST_ERROR:
	.long	-1
	.align 4
	.type	_ZL11LIST_POISON, @object
	.size	_ZL11LIST_POISON, 4
_ZL11LIST_POISON:
	.long	-1
	.align 4
	.type	_ZL18INIT_LIST_CAPACITY, @object
	.size	_ZL18INIT_LIST_CAPACITY, 4
_ZL18INIT_LIST_CAPACITY:
	.long	100
	.align 4
	.type	_ZL16CRC32_POLYNOMIAL, @object
	.size	_ZL16CRC32_POLYNOMIAL, 4
_ZL16CRC32_POLYNOMIAL:
	.long	-306674912
	.align 4
	.type	_ZL14MAX_STR_LENGTH, @object
	.size	_ZL14MAX_STR_LENGTH, 4
_ZL14MAX_STR_LENGTH:
	.long	32
	.text
	.align 2
	.globl	_ZN9HashTable8HashFuncEPKci
	.type	_ZN9HashTable8HashFuncEPKci, @function
_ZN9HashTable8HashFuncEPKci:
.LFB15:
	.cfi_startproc
	endbr64
	pushq	%rbp
	.cfi_def_cfa_offset 16
	.cfi_offset 6, -16
	movq	%rsp, %rbp
	.cfi_def_cfa_register 6
	subq	$32, %rsp
	movq	%rdi, -8(%rbp)
	movq	%rsi, -16(%rbp)
	movl	%edx, -20(%rbp)
	movq	-16(%rbp), %rax
	movq	%rax, %rdi
	call	_Z17HashFuncCRC32IntrPKc@PLT
	movl	-20(%rbp), %ecx
	movl	$0, %edx
	divl	%ecx
	movl	%edx, %eax
	leave
	.cfi_def_cfa 7, 8
	ret
	.cfi_endproc
.LFE15:
	.size	_ZN9HashTable8HashFuncEPKci, .-_ZN9HashTable8HashFuncEPKci
	.section	.rodata
.LC0:
	.string	"HashTable::HashTable(size_t)"
.LC1:
	.string	"src/HashTable.cpp"
.LC2:
	.string	"this->table != nullptr"
.LC3:
	.string	"log.txt"
	.text
	.align 2
	.globl	_ZN9HashTableC2Em
	.type	_ZN9HashTableC2Em, @function
_ZN9HashTableC2Em:
.LFB17:
	.cfi_startproc
	endbr64
	pushq	%rbp
	.cfi_def_cfa_offset 16
	.cfi_offset 6, -16
	movq	%rsp, %rbp
	.cfi_def_cfa_register 6
	subq	$32, %rsp
	movq	%rdi, -24(%rbp)
	movq	%rsi, -32(%rbp)
	movq	-24(%rbp), %rax
	movq	$0, (%rax)
	movq	-24(%rbp), %rax
	movq	-32(%rbp), %rdx
	movq	%rdx, 8(%rax)
	movq	-32(%rbp), %rax
	movl	$40, %esi
	movq	%rax, %rdi
	call	calloc@PLT
	movq	%rax, %rdx
	movq	-24(%rbp), %rax
	movq	%rdx, (%rax)
	movq	-24(%rbp), %rax
	movq	(%rax), %rax
	testq	%rax, %rax
	jne	.L4
	leaq	.LC0(%rip), %rax
	movq	%rax, %rcx
	movl	$15, %edx
	leaq	.LC1(%rip), %rax
	movq	%rax, %rsi
	leaq	.LC2(%rip), %rax
	movq	%rax, %rdi
	call	__assert_fail@PLT
.L4:
	movq	$0, -8(%rbp)
	jmp	.L5
.L6:
	movq	-24(%rbp), %rax
	movq	(%rax), %rcx
	movq	-8(%rbp), %rdx
	movq	%rdx, %rax
	salq	$2, %rax
	addq	%rdx, %rax
	salq	$3, %rax
	addq	%rcx, %rax
	leaq	.LC3(%rip), %rdx
	movl	$100, %esi
	movq	%rax, %rdi
	call	_Z8ListCtorP4ListiPKc@PLT
	addq	$1, -8(%rbp)
.L5:
	movq	-8(%rbp), %rax
	cmpq	-32(%rbp), %rax
	jb	.L6
	nop
	nop
	leave
	.cfi_def_cfa 7, 8
	ret
	.cfi_endproc
.LFE17:
	.size	_ZN9HashTableC2Em, .-_ZN9HashTableC2Em
	.globl	_ZN9HashTableC1Em
	.set	_ZN9HashTableC1Em,_ZN9HashTableC2Em
	.align 2
	.globl	_ZN9HashTableD2Ev
	.type	_ZN9HashTableD2Ev, @function
_ZN9HashTableD2Ev:
.LFB20:
	.cfi_startproc
	.cfi_personality 0x9b,DW.ref.__gxx_personality_v0
	.cfi_lsda 0x1b,.LLSDA20
	endbr64
	pushq	%rbp
	.cfi_def_cfa_offset 16
	.cfi_offset 6, -16
	movq	%rsp, %rbp
	.cfi_def_cfa_register 6
	subq	$32, %rsp
	movq	%rdi, -24(%rbp)
	movq	$0, -8(%rbp)
	jmp	.L8
.L9:
	movq	-24(%rbp), %rax
	movq	(%rax), %rcx
	movq	-8(%rbp), %rdx
	movq	%rdx, %rax
	salq	$2, %rax
	addq	%rdx, %rax
	salq	$3, %rax
	addq	%rcx, %rax
	movq	%rax, %rdi
	call	_Z8ListDtorP4List@PLT
	addq	$1, -8(%rbp)
.L8:
	movq	-24(%rbp), %rax
	movq	8(%rax), %rax
	cmpq	%rax, -8(%rbp)
	jb	.L9
	movq	-24(%rbp), %rax
	movq	$0, 8(%rax)
	nop
	leave
	.cfi_def_cfa 7, 8
	ret
	.cfi_endproc
.LFE20:
	.globl	__gxx_personality_v0
	.section	.gcc_except_table,"a",@progbits
.LLSDA20:
	.byte	0xff
	.byte	0xff
	.byte	0x1
	.uleb128 .LLSDACSE20-.LLSDACSB20
.LLSDACSB20:
.LLSDACSE20:
	.text
	.size	_ZN9HashTableD2Ev, .-_ZN9HashTableD2Ev
	.globl	_ZN9HashTableD1Ev
	.set	_ZN9HashTableD1Ev,_ZN9HashTableD2Ev
	.section	.rodata
.LC4:
	.string	"void HashTable::Insert(char*)"
.LC5:
	.string	"str != nullptr"
	.text
	.align 2
	.globl	_ZN9HashTable6InsertEPc
	.type	_ZN9HashTable6InsertEPc, @function
_ZN9HashTable6InsertEPc:
.LFB22:
	.cfi_startproc
	endbr64
	pushq	%rbp
	.cfi_def_cfa_offset 16
	.cfi_offset 6, -16
	movq	%rsp, %rbp
	.cfi_def_cfa_register 6
	pushq	%rbx
	subq	$24, %rsp
	.cfi_offset 3, -24
	movq	%rdi, -24(%rbp)
	movq	%rsi, -32(%rbp)
	cmpq	$0, -32(%rbp)
	jne	.L11
	leaq	.LC4(%rip), %rax
	movq	%rax, %rcx
	movl	$34, %edx
	leaq	.LC1(%rip), %rax
	movq	%rax, %rsi
	leaq	.LC5(%rip), %rax
	movq	%rax, %rdi
	call	__assert_fail@PLT
.L11:
	movq	-24(%rbp), %rax
	movq	(%rax), %rbx
	movq	-24(%rbp), %rax
	movq	8(%rax), %rax
	movl	%eax, %edx
	movq	-32(%rbp), %rcx
	movq	-24(%rbp), %rax
	movq	%rcx, %rsi
	movq	%rax, %rdi
	call	_ZN9HashTable8HashFuncEPKci
	movl	%eax, %edx
	movq	%rdx, %rax
	salq	$2, %rax
	addq	%rdx, %rax
	salq	$3, %rax
	leaq	(%rbx,%rax), %rdx
	movq	-32(%rbp), %rax
	movq	%rax, %rsi
	movq	%rdx, %rdi
	call	_Z13ListInsertEndP4ListPc@PLT
	nop
	movq	-8(%rbp), %rbx
	leave
	.cfi_def_cfa 7, 8
	ret
	.cfi_endproc
.LFE22:
	.size	_ZN9HashTable6InsertEPc, .-_ZN9HashTable6InsertEPc
	.section	.rodata
	.align 8
.LC6:
	.string	"bool HashTable::Find(const char*)"
	.text
	.align 2
	.globl	_ZN9HashTable4FindEPKc
	.type	_ZN9HashTable4FindEPKc, @function
_ZN9HashTable4FindEPKc:
.LFB23:
	.cfi_startproc
	endbr64
	pushq	%rbp
	.cfi_def_cfa_offset 16
	.cfi_offset 6, -16
	movq	%rsp, %rbp
	.cfi_def_cfa_register 6
	pushq	%rbx
	subq	$24, %rsp
	.cfi_offset 3, -24
	movq	%rdi, -24(%rbp)
	movq	%rsi, -32(%rbp)
	cmpq	$0, -32(%rbp)
	jne	.L13
	leaq	.LC6(%rip), %rax
	movq	%rax, %rcx
	movl	$41, %edx
	leaq	.LC1(%rip), %rax
	movq	%rax, %rsi
	leaq	.LC5(%rip), %rax
	movq	%rax, %rdi
	call	__assert_fail@PLT
.L13:
	movq	-24(%rbp), %rax
	movq	(%rax), %rbx
	movq	-24(%rbp), %rax
	movq	8(%rax), %rax
	movl	%eax, %edx
	movq	-32(%rbp), %rcx
	movq	-24(%rbp), %rax
	movq	%rcx, %rsi
	movq	%rax, %rdi
	call	_ZN9HashTable8HashFuncEPKci
	movl	%eax, %edx
	movq	%rdx, %rax
	salq	$2, %rax
	addq	%rdx, %rax
	salq	$3, %rax
	leaq	(%rbx,%rax), %rdx
	movq	-32(%rbp), %rax
	movq	%rax, %rsi
	movq	%rdx, %rdi
	call	_Z12ListFindElemP4ListPKc@PLT
	movq	-8(%rbp), %rbx
	leave
	.cfi_def_cfa 7, 8
	ret
	.cfi_endproc
.LFE23:
	.size	_ZN9HashTable4FindEPKc, .-_ZN9HashTable4FindEPKc
	.hidden	DW.ref.__gxx_personality_v0
	.weak	DW.ref.__gxx_personality_v0
	.section	.data.rel.local.DW.ref.__gxx_personality_v0,"awG",@progbits,DW.ref.__gxx_personality_v0,comdat
	.align 8
	.type	DW.ref.__gxx_personality_v0, @object
	.size	DW.ref.__gxx_personality_v0, 8
DW.ref.__gxx_personality_v0:
	.quad	__gxx_personality_v0
	.ident	"GCC: (Ubuntu 11.4.0-1ubuntu1~22.04) 11.4.0"
	.section	.note.GNU-stack,"",@progbits
	.section	.note.gnu.property,"a"
	.align 8
	.long	1f - 0f
	.long	4f - 1f
	.long	5
0:
	.string	"GNU"
1:
	.align 8
	.long	0xc0000002
	.long	3f - 2f
2:
	.long	0x3
3:
	.align 8
4:
